; Function Attrs: nounwind uwtable
define dso_local void @ExecAggInitializeDSM(ptr noundef captures(none) %0, ptr noundef readonly captures(none) %1) local_unnamed_addr #2 {
  %3 = getelementptr inbounds nuw i8, ptr %0, i64 40
  %4 = load ptr, ptr %3, align 8
  %.not = icmp eq ptr %4, null
  br i1 %.not, label %26, label %5

5:                                                ; preds = %2
  %6 = getelementptr inbounds nuw i8, ptr %1, i64 20
  %7 = load i32, ptr %6, align 4
  %8 = icmp eq i32 %7, 0
  br i1 %8, label %26, label %9

9:                                                ; preds = %5
  %10 = sext i32 %7 to i64
  %11 = mul nsw i64 %10, 24
  %12 = add nsw i64 %11, 8
  %13 = getelementptr inbounds nuw i8, ptr %1, i64 88
  %14 = load ptr, ptr %13, align 8
  %15 = tail call ptr @shm_toc_allocate(ptr noundef %14, i64 noundef %12) #12
  %16 = getelementptr inbounds nuw i8, ptr %0, i64 584
  store ptr %15, ptr %16, align 8
  tail call void @llvm.memset.p0.i64(ptr align 8 %15, i8 0, i64 %12, i1 false)
  %17 = load i32, ptr %6, align 4
  %18 = load ptr, ptr %16, align 8
  store i32 %17, ptr %18, align 8
  %19 = load ptr, ptr %13, align 8
  %20 = getelementptr inbounds nuw i8, ptr %0, i64 8
  %21 = load ptr, ptr %20, align 8
  %22 = getelementptr inbounds nuw i8, ptr %21, i64 40
  %23 = load i32, ptr %22, align 8
  %24 = sext i32 %23 to i64
  %25 = load ptr, ptr %16, align 8
  tail call void @shm_toc_insert(ptr noundef %19, i64 noundef %24, ptr noundef %25) #12
  br label %26

26:                                               ; preds = %2, %5, %9
  ret void
}